(dp1
I1
(dp2
S'taxi'
p3
(lp4
I9
aI8
asS'bus'
p5
(lp6
I46
aI58
asS'metro'
p7
(lp8
I46
assI2
(dp9
g3
(lp10
I20
aI10
asg5
(lp11
sg7
(lp12
ssI3
(dp13
g3
(lp14
I11
aI12
aI4
asg5
(lp15
I22
aI23
asg7
(lp16
ssI4
(dp17
g3
(lp18
I3
aI13
asg5
(lp19
sg7
(lp20
ssI5
(dp21
g3
(lp22
I15
aI16
asg5
(lp23
sg7
(lp24
ssI6
(dp25
g3
(lp26
I29
aI7
asg5
(lp27
sg7
(lp28
ssI7
(dp29
g3
(lp30
I6
aI17
asg5
(lp31
I42
asg7
(lp32
ssI8
(dp33
g3
(lp34
I19
aI1
aI18
asg5
(lp35
sg7
(lp36
ssI9
(dp37
g3
(lp38
I1
aI19
aI20
asg5
(lp39
sg7
(lp40
ssI10
(dp41
g3
(lp42
I21
aI2
aI11
aI34
asg5
(lp43
sg7
(lp44
ssI11
(dp45
g3
(lp46
I10
aI22
aI3
asg5
(lp47
sg7
(lp48
ssI12
(dp49
g3
(lp50
I3
aI23
asg5
(lp51
sg7
(lp52
ssI13
(dp53
g3
(lp54
I4
aI23
aI24
asg5
(lp55
I52
aI23
aI14
asg7
(lp56
I46
aI67
aI89
assI14
(dp57
g3
(lp58
I25
aI15
asg5
(lp59
I52
aI13
aI15
asg7
(lp60
ssI15
(dp61
g3
(lp62
I14
aI26
aI28
aI5
aI16
asg5
(lp63
I41
aI29
aI14
asg7
(lp64
ssI16
(dp65
g3
(lp66
I5
aI28
aI15
aI29
asg5
(lp67
sg7
(lp68
ssI17
(dp69
g3
(lp70
I29
aI7
aI30
asg5
(lp71
sg7
(lp72
ssI18
(dp73
g3
(lp74
I31
aI8
aI43
asg5
(lp75
sg7
(lp76
ssI19
(dp77
g3
(lp78
I8
aI9
aI32
asg5
(lp79
sg7
(lp80
ssI20
(dp81
g3
(lp82
I9
aI33
aI2
asg5
(lp83
sg7
(lp84
ssI21
(dp85
g3
(lp86
I10
aI33
aI47
asg5
(lp87
sg7
(lp88
ssI22
(dp89
g3
(lp90
I11
aI34
aI23
aI35
asg5
(lp91
I3
aI34
aI23
aI65
asg7
(lp92
ssI23
(dp93
g3
(lp94
I13
aI22
aI37
aI12
asg5
(lp95
I3
aI13
aI22
aI67
asg7
(lp96
ssI24
(dp97
g3
(lp98
I38
aI37
aI13
asg5
(lp99
sg7
(lp100
ssI25
(dp101
g3
(lp102
I39
aI38
aI14
asg5
(lp103
sg7
(lp104
ssI26
(dp105
g3
(lp106
I15
aI39
aI27
asg5
(lp107
sg7
(lp108
ssI27
(dp109
g3
(lp110
I26
aI28
aI40
asg5
(lp111
sg7
(lp112
ssI28
(dp113
g3
(lp114
I15
aI27
aI16
aI41
asg5
(lp115
sg7
(lp116
ssI29
(dp117
g3
(lp118
I41
aI16
aI42
aI17
aI6
asg5
(lp119
I41
aI15
aI41
aI42
aI55
asg7
(lp120
ssI30
(dp121
g3
(lp122
I17
aI42
asg5
(lp123
sg7
(lp124
ssI31
(dp125
g3
(lp126
I18
aI43
aI44
asg5
(lp127
sg7
(lp128
ssI32
(dp129
g3
(lp130
I19
aI44
aI45
aI33
asg5
(lp131
sg7
(lp132
ssI33
(dp133
g3
(lp134
I46
aI32
aI20
aI21
asg5
(lp135
sg7
(lp136
ssI34
(dp137
g3
(lp138
I22
aI47
aI10
aI48
asg5
(lp139
I46
aI22
aI63
asg7
(lp140
ssI35
(dp141
g3
(lp142
I48
aI22
aI36
aI65
asg5
(lp143
sg7
(lp144
ssI36
(dp145
g3
(lp146
I35
aI37
aI49
asg5
(lp147
sg7
(lp148
ssI37
(dp149
g3
(lp150
I36
aI23
aI50
aI24
asg5
(lp151
sg7
(lp152
ssI38
(dp153
g3
(lp154
I25
aI51
aI50
aI24
asg5
(lp155
sg7
(lp156
ssI39
(dp157
g3
(lp158
I52
aI25
aI51
aI26
asg5
(lp159
sg7
(lp160
ssI40
(dp161
g3
(lp162
I27
aI52
aI53
aI41
asg5
(lp163
sg7
(lp164
ssI41
(dp165
g3
(lp166
I40
aI28
aI54
aI29
asg5
(lp167
I52
aI29
aI15
aI29
aI87
asg7
(lp168
ssI42
(dp169
g3
(lp170
I29
aI30
aI56
aI72
asg5
(lp171
I7
aI29
aI72
asg7
(lp172
ssI43
(dp173
g3
(lp174
I18
aI31
aI57
asg5
(lp175
sg7
(lp176
ssI44
(dp177
g3
(lp178
I31
aI32
aI58
asg5
(lp179
sg7
(lp180
ssI45
(dp181
g3
(lp182
I32
aI58
aI59
aI60
aI46
asg5
(lp183
sg7
(lp184
ssI46
(dp185
g3
(lp186
I33
aI47
aI61
aI45
asg5
(lp187
I1
aI58
aI34
asg7
(lp188
I74
aI1
aI13
aI79
assI47
(dp189
g3
(lp190
I46
aI62
aI21
aI34
asg5
(lp191
sg7
(lp192
ssI48
(dp193
g3
(lp194
I34
aI62
aI35
aI63
asg5
(lp195
sg7
(lp196
ssI49
(dp197
g3
(lp198
I50
aI36
aI66
asg5
(lp199
sg7
(lp200
ssI50
(dp201
g3
(lp202
I37
aI49
aI38
asg5
(lp203
sg7
(lp204
ssI51
(dp205
g3
(lp206
I67
aI68
aI38
aI39
aI52
asg5
(lp207
sg7
(lp208
ssI52
(dp209
g3
(lp210
I69
aI39
aI51
aI40
asg5
(lp211
I67
aI41
aI14
aI13
aI86
asg7
(lp212
ssI53
(dp213
g3
(lp214
I40
aI69
aI54
asg5
(lp215
sg7
(lp216
ssI54
(dp217
g3
(lp218
I53
aI41
aI55
aI70
asg5
(lp219
sg7
(lp220
ssI55
(dp221
g3
(lp222
I54
aI71
asg5
(lp223
I89
aI29
asg7
(lp224
ssI56
(dp225
g3
(lp226
I42
aI91
asg5
(lp227
sg7
(lp228
ssI57
(dp229
g3
(lp230
I43
aI58
aI73
asg5
(lp231
sg7
(lp232
ssI58
(dp233
g3
(lp234
I44
aI57
aI45
aI59
aI75
aI74
asg5
(lp235
I1
aI46
aI74
aI77
asg7
(lp236
ssI59
(dp237
g3
(lp238
I58
aI75
aI45
aI76
asg5
(lp239
sg7
(lp240
ssI60
(dp241
g3
(lp242
I45
aI61
aI76
asg5
(lp243
sg7
(lp244
ssI61
(dp245
g3
(lp246
I60
aI78
aI76
aI62
aI46
asg5
(lp247
sg7
(lp248
ssI62
(dp249
g3
(lp250
I79
aI61
aI47
aI48
asg5
(lp251
sg7
(lp252
ssI63
(dp253
g3
(lp254
I64
aI79
aI48
aI80
asg5
(lp255
I79
aI65
aI34
aI100
asg7
(lp256
ssI64
(dp257
g3
(lp258
I65
aI63
aI81
asg5
(lp259
sg7
(lp260
ssI65
(dp261
g3
(lp262
I66
aI64
aI35
aI82
asg5
(lp263
I63
aI67
aI22
aI82
asg7
(lp264
ssI66
(dp265
g3
(lp266
I49
aI65
aI82
aI67
asg5
(lp267
sg7
(lp268
ssI67
(dp269
g3
(lp270
I66
aI84
aI68
aI51
asg5
(lp271
I65
aI52
aI23
aI82
aI102
asg7
(lp272
I13
aI89
aI111
aI79
assI68
(dp273
g3
(lp274
I85
aI67
aI51
aI69
asg5
(lp275
sg7
(lp276
ssI69
(dp277
g3
(lp278
I86
aI68
aI52
aI53
asg5
(lp279
sg7
(lp280
ssI70
(dp281
g3
(lp282
I71
aI54
aI87
asg5
(lp283
sg7
(lp284
ssI71
(dp285
g3
(lp286
I55
aI70
aI89
aI72
asg5
(lp287
sg7
(lp288
ssI72
(dp289
g3
(lp290
I91
aI90
aI71
aI42
asg5
(lp291
I42
aI105
aI107
asg7
(lp292
ssI73
(dp293
g3
(lp294
I74
aI57
aI92
asg5
(lp295
sg7
(lp296
ssI74
(dp297
g3
(lp298
I92
aI73
aI58
asg5
(lp299
I58
aI94
asg7
(lp300
I46
assI75
(dp301
g3
(lp302
I94
aI58
aI59
asg5
(lp303
sg7
(lp304
ssI76
(dp305
g3
(lp306
I60
aI77
aI61
aI59
asg5
(lp307
sg7
(lp308
ssI77
(dp309
g3
(lp310
I76
aI95
aI78
aI96
asg5
(lp311
I94
aI58
aI78
aI124
asg7
(lp312
ssI78
(dp313
g3
(lp314
I61
aI77
aI79
aI97
asg5
(lp315
I77
aI79
asg7
(lp316
ssI79
(dp317
g3
(lp318
I78
aI62
aI98
aI63
asg5
(lp319
I78
aI63
asg7
(lp320
I111
aI93
aI46
aI67
assI80
(dp321
g3
(lp322
I99
aI63
aI100
asg5
(lp323
sg7
(lp324
ssI81
(dp325
g3
(lp326
I100
aI64
aI82
asg5
(lp327
sg7
(lp328
ssI82
(dp329
g3
(lp330
I81
aI65
aI66
aI101
asg5
(lp331
I65
aI67
aI100
aI140
asg7
(lp332
ssI83
(dp333
g3
(lp334
I101
aI102
asg5
(lp335
sg7
(lp336
ssI84
(dp337
g3
(lp338
I67
aI85
asg5
(lp339
sg7
(lp340
ssI85
(dp341
g3
(lp342
I84
aI68
aI103
asg5
(lp343
sg7
(lp344
ssI86
(dp345
g3
(lp346
I69
aI103
aI104
asg5
(lp347
I102
aI87
aI52
aI116
asg7
(lp348
ssI87
(dp349
g3
(lp350
I70
aI88
asg5
(lp351
I86
aI105
aI41
asg7
(lp352
ssI88
(dp353
g3
(lp354
I87
aI89
aI117
asg5
(lp355
sg7
(lp356
ssI89
(dp357
g3
(lp358
I88
aI71
aI105
asg5
(lp359
I105
aI105
aI55
asg7
(lp360
I13
aI67
aI140
aI128
assI90
(dp361
g3
(lp362
I72
aI91
aI105
asg5
(lp363
sg7
(lp364
ssI91
(dp365
g3
(lp366
I107
aI56
aI72
aI90
aI105
asg5
(lp367
sg7
(lp368
ssI92
(dp369
g3
(lp370
I93
aI74
aI73
asg5
(lp371
sg7
(lp372
ssI93
(dp373
g3
(lp374
I92
aI94
asg5
(lp375
I94
asg7
(lp376
I79
assI94
(dp377
g3
(lp378
I75
aI93
aI95
asg5
(lp379
I93
aI74
aI77
asg7
(lp380
ssI95
(dp381
g3
(lp382
I94
aI77
aI122
asg5
(lp383
sg7
(lp384
ssI96
(dp385
g3
(lp386
I77
aI97
aI109
asg5
(lp387
sg7
(lp388
ssI97
(dp389
g3
(lp390
I96
aI98
aI78
aI109
asg5
(lp391
sg7
(lp392
ssI98
(dp393
g3
(lp394
I97
aI79
aI110
aI99
asg5
(lp395
sg7
(lp396
ssI99
(dp397
g3
(lp398
I112
aI110
aI98
aI80
asg5
(lp399
sg7
(lp400
ssI100
(dp401
g3
(lp402
I112
aI113
aI101
aI80
aI81
asg5
(lp403
I111
aI63
aI82
asg7
(lp404
ssI101
(dp405
g3
(lp406
I114
aI100
aI82
aI83
asg5
(lp407
sg7
(lp408
ssI102
(dp409
g3
(lp410
I83
aI115
aI103
asg5
(lp411
I67
aI86
aI127
asg7
(lp412
ssI103
(dp413
g3
(lp414
I102
aI85
aI86
asg5
(lp415
sg7
(lp416
ssI104
(dp417
g3
(lp418
I86
aI116
asg5
(lp419
sg7
(lp420
ssI105
(dp421
g3
(lp422
I89
aI106
aI90
aI91
aI108
asg5
(lp423
I107
aI89
aI72
aI89
aI87
aI108
asg7
(lp424
ssI106
(dp425
g3
(lp426
I105
aI107
asg5
(lp427
sg7
(lp428
ssI107
(dp429
g3
(lp430
I106
aI91
aI119
asg5
(lp431
I105
aI72
aI161
asg7
(lp432
ssI108
(dp433
g3
(lp434
I105
aI117
aI135
aI119
asg5
(lp435
I116
aI105
aI135
asg7
(lp436
ssI109
(dp437
g3
(lp438
I124
aI96
aI110
aI97
asg5
(lp439
sg7
(lp440
ssI110
(dp441
g3
(lp442
I109
aI111
aI99
aI98
asg5
(lp443
sg7
(lp444
ssI111
(dp445
g3
(lp446
I112
aI124
aI110
asg5
(lp447
I100
aI124
asg7
(lp448
I163
aI153
aI79
aI67
assI112
(dp449
g3
(lp450
I125
aI111
aI99
aI100
asg5
(lp451
sg7
(lp452
ssI113
(dp453
g3
(lp454
I114
aI125
aI100
asg5
(lp455
sg7
(lp456
ssI114
(dp457
g3
(lp458
I126
aI132
aI131
aI113
aI101
aI115
asg5
(lp459
sg7
(lp460
ssI115
(dp461
g3
(lp462
I102
aI114
aI126
aI127
asg5
(lp463
sg7
(lp464
ssI116
(dp465
g3
(lp466
I104
aI127
aI117
aI118
asg5
(lp467
I86
aI108
aI127
aI142
asg7
(lp468
ssI117
(dp469
g3
(lp470
I88
aI116
aI108
aI129
asg5
(lp471
sg7
(lp472
ssI118
(dp473
g3
(lp474
I116
aI129
aI134
aI142
asg5
(lp475
sg7
(lp476
ssI119
(dp477
g3
(lp478
I107
aI108
aI136
asg5
(lp479
sg7
(lp480
ssI120
(dp481
g3
(lp482
I121
aI144
asg5
(lp483
sg7
(lp484
ssI121
(dp485
g3
(lp486
I122
aI120
aI145
asg5
(lp487
sg7
(lp488
ssI122
(dp489
g3
(lp490
I95
aI121
aI146
aI123
asg5
(lp491
I144
aI123
asg7
(lp492
ssI123
(dp493
g3
(lp494
I122
aI137
aI148
aI149
aI124
asg5
(lp495
I122
aI144
aI124
aI165
asg7
(lp496
ssI124
(dp497
g3
(lp498
I123
aI109
aI138
aI130
aI111
asg5
(lp499
I123
aI77
aI111
aI153
asg7
(lp500
ssI125
(dp501
g3
(lp502
I113
aI112
aI131
asg5
(lp503
sg7
(lp504
ssI126
(dp505
g3
(lp506
I140
aI114
aI115
aI127
asg5
(lp507
sg7
(lp508
ssI127
(dp509
g3
(lp510
I115
aI116
aI134
aI126
aI133
asg5
(lp511
I102
aI133
aI116
asg7
(lp512
ssI128
(dp513
g3
(lp514
I143
aI142
aI160
aI188
aI172
asg5
(lp515
I135
aI142
aI161
aI187
aI199
asg7
(lp516
I140
aI89
aI185
assI129
(dp517
g3
(lp518
I135
aI117
aI118
aI143
aI142
asg5
(lp519
sg7
(lp520
ssI130
(dp521
g3
(lp522
I124
aI139
aI131
asg5
(lp523
sg7
(lp524
ssI131
(dp525
g3
(lp526
I130
aI114
aI125
asg5
(lp527
sg7
(lp528
ssI132
(dp529
g3
(lp530
I140
aI114
asg5
(lp531
sg7
(lp532
ssI133
(dp533
g3
(lp534
I127
aI141
aI140
asg5
(lp535
I127
aI140
aI157
asg7
(lp536
ssI134
(dp537
g3
(lp538
I118
aI127
aI141
aI142
asg5
(lp539
sg7
(lp540
ssI135
(dp541
g3
(lp542
I108
aI129
aI143
aI136
aI161
asg5
(lp543
I128
aI161
aI108
asg7
(lp544
ssI136
(dp545
g3
(lp546
I119
aI135
aI162
asg5
(lp547
sg7
(lp548
ssI137
(dp549
g3
(lp550
I123
aI147
asg5
(lp551
sg7
(lp552
ssI138
(dp553
g3
(lp554
I150
aI152
aI124
asg5
(lp555
sg7
(lp556
ssI139
(dp557
g3
(lp558
I130
aI153
aI154
aI140
asg5
(lp559
sg7
(lp560
ssI140
(dp561
g3
(lp562
I154
aI156
aI139
aI132
aI126
aI133
asg5
(lp563
I133
aI156
aI82
asg7
(lp564
I153
aI89
aI128
assI141
(dp565
g3
(lp566
I133
aI134
aI142
aI158
asg5
(lp567
sg7
(lp568
ssI142
(dp569
g3
(lp570
I141
aI134
aI118
aI143
aI129
aI128
aI158
asg5
(lp571
I157
aI116
aI128
asg7
(lp572
ssI143
(dp573
g3
(lp574
I142
aI135
aI129
aI160
aI128
asg5
(lp575
sg7
(lp576
ssI144
(dp577
g3
(lp578
I120
aI177
aI145
asg5
(lp579
I122
aI163
aI123
asg7
(lp580
ssI145
(dp581
g3
(lp582
I121
aI146
aI144
asg5
(lp583
sg7
(lp584
ssI146
(dp585
g3
(lp586
I163
aI145
aI122
aI147
asg5
(lp587
sg7
(lp588
ssI147
(dp589
g3
(lp590
I137
aI146
aI164
asg5
(lp591
sg7
(lp592
ssI148
(dp593
g3
(lp594
I164
aI123
aI149
asg5
(lp595
sg7
(lp596
ssI149
(dp597
g3
(lp598
I148
aI123
aI150
aI165
asg5
(lp599
sg7
(lp600
ssI150
(dp601
g3
(lp602
I149
aI151
aI138
asg5
(lp603
sg7
(lp604
ssI151
(dp605
g3
(lp606
I150
aI165
aI166
aI152
asg5
(lp607
sg7
(lp608
ssI152
(dp609
g3
(lp610
I138
aI153
aI151
asg5
(lp611
sg7
(lp612
ssI153
(dp613
g3
(lp614
I152
aI166
aI139
aI167
aI154
asg5
(lp615
I124
aI154
aI184
asg7
(lp616
I163
aI140
aI111
aI185
assI154
(dp617
g3
(lp618
I139
aI153
aI155
aI140
asg5
(lp619
I156
aI153
asg7
(lp620
ssI155
(dp621
g3
(lp622
I168
aI167
aI154
aI156
asg5
(lp623
sg7
(lp624
ssI156
(dp625
g3
(lp626
I169
aI155
aI140
aI157
asg5
(lp627
I157
aI140
aI184
aI154
asg7
(lp628
ssI157
(dp629
g3
(lp630
I158
aI170
aI156
asg5
(lp631
I142
aI156
aI133
aI185
asg7
(lp632
ssI158
(dp633
g3
(lp634
I141
aI142
aI157
aI159
asg5
(lp635
sg7
(lp636
ssI159
(dp637
g3
(lp638
I158
aI172
aI186
aI198
aI170
asg5
(lp639
sg7
(lp640
ssI160
(dp641
g3
(lp642
I143
aI128
aI161
aI173
asg5
(lp643
sg7
(lp644
ssI161
(dp645
g3
(lp646
I135
aI160
aI174
asg5
(lp647
I135
aI128
aI199
aI107
asg7
(lp648
ssI162
(dp649
g3
(lp650
I136
aI175
asg5
(lp651
sg7
(lp652
ssI163
(dp653
g3
(lp654
I178
aI146
aI177
asg5
(lp655
I176
aI144
aI191
asg7
(lp656
I153
aI111
assI164
(dp657
g3
(lp658
I147
aI178
aI148
aI179
asg5
(lp659
sg7
(lp660
ssI165
(dp661
g3
(lp662
I151
aI179
aI180
aI149
asg5
(lp663
I191
aI180
aI123
asg7
(lp664
ssI166
(dp665
g3
(lp666
I181
aI151
aI153
aI183
asg5
(lp667
sg7
(lp668
ssI167
(dp669
g3
(lp670
I153
aI183
aI168
aI155
asg5
(lp671
sg7
(lp672
ssI168
(dp673
g3
(lp674
I167
aI155
aI184
asg5
(lp675
sg7
(lp676
ssI169
(dp677
g3
(lp678
I184
aI156
asg5
(lp679
sg7
(lp680
ssI170
(dp681
g3
(lp682
I185
aI157
aI159
asg5
(lp683
sg7
(lp684
ssI171
(dp685
g3
(lp686
I199
aI173
aI175
asg5
(lp687
sg7
(lp688
ssI172
(dp689
g3
(lp690
I128
aI187
aI159
asg5
(lp691
sg7
(lp692
ssI173
(dp693
g3
(lp694
I160
aI174
aI188
aI171
asg5
(lp695
sg7
(lp696
ssI174
(dp697
g3
(lp698
I175
aI161
aI173
asg5
(lp699
sg7
(lp700
ssI175
(dp701
g3
(lp702
I162
aI174
aI171
asg5
(lp703
sg7
(lp704
ssI176
(dp705
g3
(lp706
I177
aI189
asg5
(lp707
I163
aI190
asg7
(lp708
ssI177
(dp709
g3
(lp710
I144
aI176
aI163
asg5
(lp711
sg7
(lp712
ssI178
(dp713
g3
(lp714
I189
aI163
aI164
aI191
asg5
(lp715
sg7
(lp716
ssI179
(dp717
g3
(lp718
I165
aI191
aI164
asg5
(lp719
sg7
(lp720
ssI180
(dp721
g3
(lp722
I165
aI193
aI181
asg5
(lp723
I190
aI165
aI184
asg7
(lp724
ssI181
(dp725
g3
(lp726
I182
aI193
aI180
aI166
asg5
(lp727
sg7
(lp728
ssI182
(dp729
g3
(lp730
I195
aI181
aI183
asg5
(lp731
sg7
(lp732
ssI183
(dp733
g3
(lp734
I196
aI182
aI166
aI167
asg5
(lp735
sg7
(lp736
ssI184
(dp737
g3
(lp738
I197
aI196
aI168
aI169
aI185
asg5
(lp739
I156
aI153
aI180
asg7
(lp740
ssI185
(dp741
g3
(lp742
I184
aI186
aI170
asg5
(lp743
I187
aI157
asg7
(lp744
I128
aI153
assI186
(dp745
g3
(lp746
I159
aI185
aI198
asg5
(lp747
sg7
(lp748
ssI187
(dp749
g3
(lp750
I172
aI188
aI198
asg5
(lp751
I128
aI185
asg7
(lp752
ssI188
(dp753
g3
(lp754
I173
aI128
aI187
aI199
asg5
(lp755
sg7
(lp756
ssI189
(dp757
g3
(lp758
I176
aI178
aI190
asg5
(lp759
sg7
(lp760
ssI190
(dp761
g3
(lp762
I189
aI191
aI192
asg5
(lp763
I191
aI180
aI176
asg7
(lp764
ssI191
(dp765
g3
(lp766
I179
aI178
aI190
aI192
asg5
(lp767
I165
aI163
aI190
asg7
(lp768
ssI192
(dp769
g3
(lp770
I190
aI191
aI194
asg5
(lp771
sg7
(lp772
ssI193
(dp773
g3
(lp774
I180
aI194
aI181
asg5
(lp775
sg7
(lp776
ssI194
(dp777
g3
(lp778
I193
aI192
aI195
asg5
(lp779
sg7
(lp780
ssI195
(dp781
g3
(lp782
I182
aI194
aI197
asg5
(lp783
sg7
(lp784
ssI196
(dp785
g3
(lp786
I184
aI197
aI183
asg5
(lp787
sg7
(lp788
ssI197
(dp789
g3
(lp790
I195
aI184
aI196
asg5
(lp791
sg7
(lp792
ssI198
(dp793
g3
(lp794
I187
aI199
aI186
aI159
asg5
(lp795
sg7
(lp796
ssI199
(dp797
g3
(lp798
I188
aI171
aI198
asg5
(lp799
I161
aI128
asg7
(lp800
ss.